target datalayout = "e-m:e-p270:32:32-p271:32:32-p272:64:64-i64:64-i128:128-f80:128-n8:16:32:64-S128"
target triple = "x86_64-pc-linux-gnu"

; Function Attrs: inlinehint mustprogress nounwind uwtable
define internal noundef signext i8 @_ZL9U_FAILURE10UErrorCode(i32 noundef %0) #2 {
  %2 = alloca i32, align 4
  store i32 %0, ptr %2, align 4, !tbaa !15
  %3 = load i32, ptr %2, align 4, !tbaa !15
  %4 = icmp sgt i32 %3, 0
  %5 = zext i1 %4 to i8
  ret i8 %5
}

; Function Attrs: mustprogress uwtable
define ptr @udata_openChoice_77(ptr noundef %0, ptr noundef %1, ptr noundef %2, ptr noundef %3, ptr noundef %4, ptr noundef %5) #1 {
  %7 = alloca ptr, align 8
  %8 = alloca ptr, align 8
  %9 = alloca ptr, align 8
  %10 = alloca ptr, align 8
  %11 = alloca ptr, align 8
  %12 = alloca ptr, align 8
  %13 = alloca ptr, align 8
  store ptr %0, ptr %8, align 8, !tbaa !17
  store ptr %1, ptr %9, align 8, !tbaa !17
  store ptr %2, ptr %10, align 8, !tbaa !17
  store ptr %3, ptr %11, align 8, !tbaa !22
  store ptr %4, ptr %12, align 8, !tbaa !22
  store ptr %5, ptr %13, align 8, !tbaa !22
  %14 = load ptr, ptr %13, align 8, !tbaa !22
  %15 = icmp eq ptr %14, null
  br i1 %15, label %21, label %16

16:                                               ; preds = %6
  %17 = load ptr, ptr %13, align 8, !tbaa !22
  %18 = load i32, ptr %17, align 4, !tbaa !15
  %19 = call noundef signext i8 @_ZL9U_FAILURE10UErrorCode(i32 noundef %18)
  %20 = icmp ne i8 %19, 0
  br i1 %20, label %21, label %22

21:                                               ; preds = %16, %6
  store ptr null, ptr %7, align 8
  br label %43

22:                                               ; preds = %16
  %23 = load ptr, ptr %10, align 8, !tbaa !17
  %24 = icmp eq ptr %23, null
  br i1 %24, label %33, label %25

25:                                               ; preds = %22
  %26 = load ptr, ptr %10, align 8, !tbaa !17
  %27 = load i8, ptr %26, align 1, !tbaa !25
  %28 = sext i8 %27 to i32
  %29 = icmp eq i32 %28, 0
  br i1 %29, label %33, label %30

30:                                               ; preds = %25
  %31 = load ptr, ptr %11, align 8, !tbaa !22
  %32 = icmp eq ptr %31, null
  br i1 %32, label %33, label %35

33:                                               ; preds = %30, %25, %22
  %34 = load ptr, ptr %13, align 8, !tbaa !22
  store i32 1, ptr %34, align 4, !tbaa !15
  store ptr null, ptr %7, align 8
  br label %43

35:                                               ; preds = %30
  %36 = load ptr, ptr %8, align 8, !tbaa !17
  %37 = load ptr, ptr %9, align 8, !tbaa !17
  %38 = load ptr, ptr %10, align 8, !tbaa !17
  %39 = load ptr, ptr %11, align 8, !tbaa !22
  %40 = load ptr, ptr %12, align 8, !tbaa !22
  %41 = load ptr, ptr %13, align 8, !tbaa !22
  %42 = call noundef ptr @_ZL12doOpenChoicePKcS0_S0_PFaPvS0_S0_PK9UDataInfoES1_P10UErrorCode(ptr noundef %36, ptr noundef %37, ptr noundef %38, ptr noundef %39, ptr noundef %40, ptr noundef %41)
  store ptr %42, ptr %7, align 8
  br label %43

43:                                               ; preds = %35, %33, %21
  %44 = load ptr, ptr %7, align 8
  ret ptr %44
}