; Function Attrs: mustprogress uwtable
define noundef ptr @udata_openChoice_77(ptr noundef %0, ptr noundef %1, ptr noundef %2, ptr noundef %3, ptr noundef %4, ptr noundef %5) local_unnamed_addr #1 {
  %7 = icmp eq ptr %5, null
  br i1 %7, label %20, label %8

8:                                                ; preds = %6
  %9 = load i32, ptr %5, align 4, !tbaa !13
  %10 = icmp slt i32 %9, 1
  br i1 %10, label %11, label %20

11:                                               ; preds = %8
  %12 = icmp eq ptr %2, null
  br i1 %12, label %17, label %13

13:                                               ; preds = %11
  %14 = load i8, ptr %2, align 1, !tbaa !20
  %15 = icmp eq i8 %14, 0
  %16 = icmp eq ptr %3, null
  %or.cond = or i1 %16, %15
  br i1 %or.cond, label %17, label %18

17:                                               ; preds = %13, %11
  store i32 1, ptr %5, align 4, !tbaa !13
  br label %20

18:                                               ; preds = %13
  %19 = tail call fastcc noundef ptr @_ZL12doOpenChoicePKcS0_S0_PFaPvS0_S0_PK9UDataInfoES1_P10UErrorCode(ptr noundef %0, ptr noundef %1, ptr noundef %2, ptr noundef nonnull %3, ptr noundef %4, ptr noundef %5)
  br label %20

20:                                               ; preds = %6, %8, %18, %17
  %.0 = phi ptr [ null, %17 ], [ %19, %18 ], [ null, %8 ], [ null, %6 ]
  ret ptr %.0
}